target datalayout = "e-m:e-p270:32:32-p271:32:32-p272:64:64-i64:64-i128:128-f80:128-n8:16:32:64-S128"
target triple = "x86_64-pc-linux-gnu"

%"class.__gnu_cxx::__normal_iterator" = type { ptr }
%"class.toml::v3::path_component" = type { %"struct.toml::v3::path_component::storage_t", i8, [7 x i8] }
%"struct.toml::v3::path_component::storage_t" = type { [32 x i8] }
%"class.toml::v3::path" = type { %"class.std::vector.24" }
%"class.std::vector.24" = type { %"struct.std::_Vector_base.25" }
%"struct.std::_Vector_base.25" = type { %"struct.std::_Vector_base<toml::v3::path_component, std::allocator<toml::v3::path_component>>::_Vector_impl" }
%"struct.std::_Vector_base<toml::v3::path_component, std::allocator<toml::v3::path_component>>::_Vector_impl" = type { %"struct.std::_Vector_base<toml::v3::path_component, std::allocator<toml::v3::path_component>>::_Vector_impl_data" }
%"struct.std::_Vector_base<toml::v3::path_component, std::allocator<toml::v3::path_component>>::_Vector_impl_data" = type { ptr, ptr, ptr }
%"class.__gnu_cxx::__normal_iterator.32" = type { ptr }

; Function Attrs: mustprogress nounwind uwtable
define linkonce_odr void @_ZNSt15__new_allocatorIN4toml2v314path_componentEEC2Ev(ptr noundef nonnull align 1 dereferenceable(1) %0) unnamed_addr #2 comdat align 2 {
  %2 = alloca ptr, align 8
  store ptr %0, ptr %2, align 8, !tbaa !487
  ret void
}

; Function Attrs: mustprogress nounwind uwtable
define linkonce_odr void @_ZNSt12_Vector_baseIN4toml2v314path_componentESaIS2_EE17_Vector_impl_dataC2Ev(ptr noundef nonnull align 8 dereferenceable(24) %0) unnamed_addr #2 comdat align 2 {
  %2 = alloca ptr, align 8
  store ptr %0, ptr %2, align 8, !tbaa !484
  %3 = load ptr, ptr %2, align 8
  %4 = getelementptr inbounds nuw %"struct.std::_Vector_base<toml::v3::path_component, std::allocator<toml::v3::path_component>>::_Vector_impl_data", ptr %3, i32 0, i32 0
  store ptr null, ptr %4, align 8, !tbaa !188
  %5 = getelementptr inbounds nuw %"struct.std::_Vector_base<toml::v3::path_component, std::allocator<toml::v3::path_component>>::_Vector_impl_data", ptr %3, i32 0, i32 1
  store ptr null, ptr %5, align 8, !tbaa !190
  %6 = getelementptr inbounds nuw %"struct.std::_Vector_base<toml::v3::path_component, std::allocator<toml::v3::path_component>>::_Vector_impl_data", ptr %3, i32 0, i32 2
  store ptr null, ptr %6, align 8, !tbaa !486
  ret void
}

; Function Attrs: mustprogress nounwind uwtable
define linkonce_odr void @_ZNSaIN4toml2v314path_componentEEC2Ev(ptr noundef nonnull align 1 dereferenceable(1) %0) unnamed_addr #2 comdat align 2 {
  %2 = alloca ptr, align 8
  store ptr %0, ptr %2, align 8, !tbaa !482
  %3 = load ptr, ptr %2, align 8
  call void @_ZNSt15__new_allocatorIN4toml2v314path_componentEEC2Ev(ptr noundef nonnull align 1 dereferenceable(1) %3) #36
  ret void
}

; Function Attrs: mustprogress nounwind uwtable
define linkonce_odr void @_ZNSt12_Vector_baseIN4toml2v314path_componentESaIS2_EE12_Vector_implC2Ev(ptr noundef nonnull align 8 dereferenceable(24) %0) unnamed_addr #2 comdat align 2 {
  %2 = alloca ptr, align 8
  store ptr %0, ptr %2, align 8, !tbaa !480
  %3 = load ptr, ptr %2, align 8
  call void @_ZNSaIN4toml2v314path_componentEEC2Ev(ptr noundef nonnull align 1 dereferenceable(1) %3) #36
  call void @_ZNSt12_Vector_baseIN4toml2v314path_componentESaIS2_EE17_Vector_impl_dataC2Ev(ptr noundef nonnull align 8 dereferenceable(24) %3) #36
  ret void
}

; Function Attrs: inlinehint mustprogress nounwind uwtable
define linkonce_odr void @_ZSt19__iterator_categoryIN9__gnu_cxx17__normal_iteratorIPKN4toml2v314path_componentESt6vectorIS4_SaIS4_EEEEENSt15iterator_traitsIT_E17iterator_categoryERKSC_(ptr noundef nonnull align 8 dereferenceable(8) %0) #3 comdat {
  %2 = alloca ptr, align 8
  store ptr %0, ptr %2, align 8, !tbaa !184
  ret void
}

; Function Attrs: mustprogress nounwind uwtable
define linkonce_odr void @_ZN9__gnu_cxx17__normal_iteratorIPKN4toml2v314path_componentESt6vectorIS3_SaIS3_EEEC2ERKS5_(ptr noundef nonnull align 8 dereferenceable(8) %0, ptr noundef nonnull align 8 dereferenceable(8) %1) unnamed_addr #2 comdat align 2 {
  %3 = alloca ptr, align 8
  %4 = alloca ptr, align 8
  store ptr %0, ptr %3, align 8, !tbaa !184
  store ptr %1, ptr %4, align 8, !tbaa !876
  %5 = load ptr, ptr %3, align 8
  %6 = getelementptr inbounds nuw %"class.__gnu_cxx::__normal_iterator", ptr %5, i32 0, i32 0
  %7 = load ptr, ptr %4, align 8, !tbaa !876
  %8 = load ptr, ptr %7, align 8, !tbaa !153
  store ptr %8, ptr %6, align 8, !tbaa !186
  ret void
}

; Function Attrs: mustprogress nounwind uwtable
define linkonce_odr void @_ZNSt12_Vector_baseIN4toml2v314path_componentESaIS2_EEC2Ev(ptr noundef nonnull align 8 dereferenceable(24) %0) unnamed_addr #2 comdat align 2 {
  %2 = alloca ptr, align 8
  store ptr %0, ptr %2, align 8, !tbaa !478
  %3 = load ptr, ptr %2, align 8
  %4 = getelementptr inbounds nuw %"struct.std::_Vector_base.25", ptr %3, i32 0, i32 0
  call void @_ZNSt12_Vector_baseIN4toml2v314path_componentESaIS2_EE12_Vector_implC2Ev(ptr noundef nonnull align 8 dereferenceable(24) %4) #36
  ret void
}

; Function Attrs: mustprogress uwtable
define linkonce_odr void @_ZNSt6vectorIN4toml2v314path_componentESaIS2_EE18_M_insert_dispatchIN9__gnu_cxx17__normal_iteratorIPKS2_S4_EEEEvNS7_IPS2_S4_EET_SD_St12__false_type(ptr noundef nonnull align 8 dereferenceable(24) %0, ptr %1, ptr %2, ptr %3) #0 comdat align 2 {
  %5 = alloca %"class.__gnu_cxx::__normal_iterator.32", align 8
  %6 = alloca %"class.__gnu_cxx::__normal_iterator", align 8
  %7 = alloca %"class.__gnu_cxx::__normal_iterator", align 8
  %8 = alloca ptr, align 8
  %9 = alloca %"class.__gnu_cxx::__normal_iterator.32", align 8
  %10 = alloca %"class.__gnu_cxx::__normal_iterator", align 8
  %11 = alloca %"class.__gnu_cxx::__normal_iterator", align 8
  %12 = getelementptr inbounds nuw %"class.__gnu_cxx::__normal_iterator.32", ptr %5, i32 0, i32 0
  store ptr %1, ptr %12, align 8
  %13 = getelementptr inbounds nuw %"class.__gnu_cxx::__normal_iterator", ptr %6, i32 0, i32 0
  store ptr %2, ptr %13, align 8
  %14 = getelementptr inbounds nuw %"class.__gnu_cxx::__normal_iterator", ptr %7, i32 0, i32 0
  store ptr %3, ptr %14, align 8
  store ptr %0, ptr %8, align 8, !tbaa !182
  %15 = load ptr, ptr %8, align 8
  call void @llvm.memcpy.p0.p0.i64(ptr align 8 %9, ptr align 8 %5, i64 8, i1 false), !tbaa.struct !191
  call void @llvm.memcpy.p0.p0.i64(ptr align 8 %10, ptr align 8 %6, i64 8, i1 false), !tbaa.struct !191
  call void @llvm.memcpy.p0.p0.i64(ptr align 8 %11, ptr align 8 %7, i64 8, i1 false), !tbaa.struct !191
  call void @_ZSt19__iterator_categoryIN9__gnu_cxx17__normal_iteratorIPKN4toml2v314path_componentESt6vectorIS4_SaIS4_EEEEENSt15iterator_traitsIT_E17iterator_categoryERKSC_(ptr noundef nonnull align 8 dereferenceable(8) %6)
  %16 = getelementptr inbounds nuw %"class.__gnu_cxx::__normal_iterator.32", ptr %9, i32 0, i32 0
  %17 = load ptr, ptr %16, align 8
  %18 = getelementptr inbounds nuw %"class.__gnu_cxx::__normal_iterator", ptr %10, i32 0, i32 0
  %19 = load ptr, ptr %18, align 8
  %20 = getelementptr inbounds nuw %"class.__gnu_cxx::__normal_iterator", ptr %11, i32 0, i32 0
  %21 = load ptr, ptr %20, align 8
  call void @_ZNSt6vectorIN4toml2v314path_componentESaIS2_EE15_M_range_insertIN9__gnu_cxx17__normal_iteratorIPKS2_S4_EEEEvNS7_IPS2_S4_EET_SD_St20forward_iterator_tag(ptr noundef nonnull align 8 dereferenceable(24) %15, ptr %17, ptr %19, ptr %21)
  ret void
}

; Function Attrs: mustprogress nounwind uwtable
define linkonce_odr ptr @_ZNK9__gnu_cxx17__normal_iteratorIPN4toml2v314path_componentESt6vectorIS3_SaIS3_EEEplEl(ptr noundef nonnull align 8 dereferenceable(8) %0, i64 noundef %1) #2 comdat align 2 {
  %3 = alloca %"class.__gnu_cxx::__normal_iterator.32", align 8
  %4 = alloca ptr, align 8
  %5 = alloca i64, align 8
  %6 = alloca ptr, align 8
  store ptr %0, ptr %4, align 8, !tbaa !192
  store i64 %1, ptr %5, align 8, !tbaa !10
  %7 = load ptr, ptr %4, align 8
  call void @llvm.lifetime.start.p0(i64 8, ptr %6) #36
  %8 = getelementptr inbounds nuw %"class.__gnu_cxx::__normal_iterator.32", ptr %7, i32 0, i32 0
  %9 = load ptr, ptr %8, align 8, !tbaa !200
  %10 = load i64, ptr %5, align 8, !tbaa !10
  %11 = getelementptr inbounds %"class.toml::v3::path_component", ptr %9, i64 %10
  store ptr %11, ptr %6, align 8, !tbaa !153
  call void @_ZN9__gnu_cxx17__normal_iteratorIPN4toml2v314path_componentESt6vectorIS3_SaIS3_EEEC2ERKS4_(ptr noundef nonnull align 8 dereferenceable(8) %3, ptr noundef nonnull align 8 dereferenceable(8) %6) #36
  call void @llvm.lifetime.end.p0(i64 8, ptr %6) #36
  %12 = getelementptr inbounds nuw %"class.__gnu_cxx::__normal_iterator.32", ptr %3, i32 0, i32 0
  %13 = load ptr, ptr %12, align 8
  ret ptr %13
}

; Function Attrs: inlinehint mustprogress nounwind uwtable
define linkonce_odr noundef i64 @_ZN9__gnu_cxxmiIPKN4toml2v314path_componentESt6vectorIS3_SaIS3_EEEENS_17__normal_iteratorIT_T0_E15difference_typeERKSC_SF_(ptr noundef nonnull align 8 dereferenceable(8) %0, ptr noundef nonnull align 8 dereferenceable(8) %1) #3 comdat {
  %3 = alloca ptr, align 8
  %4 = alloca ptr, align 8
  store ptr %0, ptr %3, align 8, !tbaa !184
  store ptr %1, ptr %4, align 8, !tbaa !184
  %5 = load ptr, ptr %3, align 8, !tbaa !184
  %6 = call noundef nonnull align 8 dereferenceable(8) ptr @_ZNK9__gnu_cxx17__normal_iteratorIPKN4toml2v314path_componentESt6vectorIS3_SaIS3_EEE4baseEv(ptr noundef nonnull align 8 dereferenceable(8) %5) #36
  %7 = load ptr, ptr %6, align 8, !tbaa !153
  %8 = load ptr, ptr %4, align 8, !tbaa !184
  %9 = call noundef nonnull align 8 dereferenceable(8) ptr @_ZNK9__gnu_cxx17__normal_iteratorIPKN4toml2v314path_componentESt6vectorIS3_SaIS3_EEE4baseEv(ptr noundef nonnull align 8 dereferenceable(8) %8) #36
  %10 = load ptr, ptr %9, align 8, !tbaa !153
  %11 = ptrtoint ptr %7 to i64
  %12 = ptrtoint ptr %10 to i64
  %13 = sub i64 %11, %12
  %14 = sdiv exact i64 %13, 40
  ret i64 %14
}

; Function Attrs: mustprogress nounwind uwtable
define linkonce_odr ptr @_ZNKSt6vectorIN4toml2v314path_componentESaIS2_EE6cbeginEv(ptr noundef nonnull align 8 dereferenceable(24) %0) #2 comdat align 2 {
  %2 = alloca %"class.__gnu_cxx::__normal_iterator", align 8
  %3 = alloca ptr, align 8
  store ptr %0, ptr %3, align 8, !tbaa !182
  %4 = load ptr, ptr %3, align 8
  %5 = getelementptr inbounds nuw %"struct.std::_Vector_base.25", ptr %4, i32 0, i32 0
  %6 = getelementptr inbounds nuw %"struct.std::_Vector_base<toml::v3::path_component, std::allocator<toml::v3::path_component>>::_Vector_impl_data", ptr %5, i32 0, i32 0
  call void @_ZN9__gnu_cxx17__normal_iteratorIPKN4toml2v314path_componentESt6vectorIS3_SaIS3_EEEC2ERKS5_(ptr noundef nonnull align 8 dereferenceable(8) %2, ptr noundef nonnull align 8 dereferenceable(8) %6) #36
  %7 = getelementptr inbounds nuw %"class.__gnu_cxx::__normal_iterator", ptr %2, i32 0, i32 0
  %8 = load ptr, ptr %7, align 8
  ret ptr %8
}

; Function Attrs: mustprogress nounwind uwtable
define linkonce_odr noundef nonnull align 8 dereferenceable(8) ptr @_ZNK9__gnu_cxx17__normal_iteratorIPN4toml2v314path_componentESt6vectorIS3_SaIS3_EEE4baseEv(ptr noundef nonnull align 8 dereferenceable(8) %0) #2 comdat align 2 {
  %2 = alloca ptr, align 8
  store ptr %0, ptr %2, align 8, !tbaa !192
  %3 = load ptr, ptr %2, align 8
  %4 = getelementptr inbounds nuw %"class.__gnu_cxx::__normal_iterator.32", ptr %3, i32 0, i32 0
  ret ptr %4
}

; Function Attrs: mustprogress nounwind uwtable
define linkonce_odr void @_ZN9__gnu_cxx17__normal_iteratorIPN4toml2v314path_componentESt6vectorIS3_SaIS3_EEEC2ERKS4_(ptr noundef nonnull align 8 dereferenceable(8) %0, ptr noundef nonnull align 8 dereferenceable(8) %1) unnamed_addr #2 comdat align 2 {
  %3 = alloca ptr, align 8
  %4 = alloca ptr, align 8
  store ptr %0, ptr %3, align 8, !tbaa !192
  store ptr %1, ptr %4, align 8, !tbaa !876
  %5 = load ptr, ptr %3, align 8
  %6 = getelementptr inbounds nuw %"class.__gnu_cxx::__normal_iterator.32", ptr %5, i32 0, i32 0
  %7 = load ptr, ptr %4, align 8, !tbaa !876
  %8 = load ptr, ptr %7, align 8, !tbaa !153
  store ptr %8, ptr %6, align 8, !tbaa !200
  ret void
}

; Function Attrs: mustprogress nounwind uwtable
define linkonce_odr void @_ZNSt6vectorIN4toml2v314path_componentESaIS2_EEC2Ev(ptr noundef nonnull align 8 dereferenceable(24) %0) unnamed_addr #2 comdat align 2 {
  %2 = alloca ptr, align 8
  store ptr %0, ptr %2, align 8, !tbaa !182
  %3 = load ptr, ptr %2, align 8
  call void @_ZNSt12_Vector_baseIN4toml2v314path_componentESaIS2_EEC2Ev(ptr noundef nonnull align 8 dereferenceable(24) %3) #36
  ret void
}

; Function Attrs: mustprogress nounwind uwtable
define linkonce_odr noundef nonnull align 8 dereferenceable(8) ptr @_ZNK9__gnu_cxx17__normal_iteratorIPKN4toml2v314path_componentESt6vectorIS3_SaIS3_EEE4baseEv(ptr noundef nonnull align 8 dereferenceable(8) %0) #2 comdat align 2 {
  %2 = alloca ptr, align 8
  store ptr %0, ptr %2, align 8, !tbaa !184
  %3 = load ptr, ptr %2, align 8
  %4 = getelementptr inbounds nuw %"class.__gnu_cxx::__normal_iterator", ptr %3, i32 0, i32 0
  ret ptr %4
}

; Function Attrs: mustprogress uwtable
define linkonce_odr ptr @_ZNSt6vectorIN4toml2v314path_componentESaIS2_EE6insertIN9__gnu_cxx17__normal_iteratorIPKS2_S4_EEvEENS7_IPS2_S4_EESA_T_SD_(ptr noundef nonnull align 8 dereferenceable(24) %0, ptr %1, ptr %2, ptr %3) #0 comdat align 2 {
  %5 = alloca %"class.__gnu_cxx::__normal_iterator.32", align 8
  %6 = alloca %"class.__gnu_cxx::__normal_iterator", align 8
  %7 = alloca %"class.__gnu_cxx::__normal_iterator", align 8
  %8 = alloca %"class.__gnu_cxx::__normal_iterator", align 8
  %9 = alloca ptr, align 8
  %10 = alloca i64, align 8
  %11 = alloca %"class.__gnu_cxx::__normal_iterator", align 8
  %12 = alloca %"class.__gnu_cxx::__normal_iterator.32", align 8
  %13 = alloca %"class.__gnu_cxx::__normal_iterator.32", align 8
  %14 = alloca %"class.__gnu_cxx::__normal_iterator", align 8
  %15 = alloca %"class.__gnu_cxx::__normal_iterator", align 8
  %16 = alloca %"class.__gnu_cxx::__normal_iterator.32", align 8
  %17 = getelementptr inbounds nuw %"class.__gnu_cxx::__normal_iterator", ptr %6, i32 0, i32 0
  store ptr %1, ptr %17, align 8
  %18 = getelementptr inbounds nuw %"class.__gnu_cxx::__normal_iterator", ptr %7, i32 0, i32 0
  store ptr %2, ptr %18, align 8
  %19 = getelementptr inbounds nuw %"class.__gnu_cxx::__normal_iterator", ptr %8, i32 0, i32 0
  store ptr %3, ptr %19, align 8
  store ptr %0, ptr %9, align 8, !tbaa !182
  %20 = load ptr, ptr %9, align 8
  call void @llvm.lifetime.start.p0(i64 8, ptr %10) #36
  call void @llvm.lifetime.start.p0(i64 8, ptr %11) #36
  %21 = call ptr @_ZNKSt6vectorIN4toml2v314path_componentESaIS2_EE6cbeginEv(ptr noundef nonnull align 8 dereferenceable(24) %20) #36
  %22 = getelementptr inbounds nuw %"class.__gnu_cxx::__normal_iterator", ptr %11, i32 0, i32 0
  store ptr %21, ptr %22, align 8
  %23 = call noundef i64 @_ZN9__gnu_cxxmiIPKN4toml2v314path_componentESt6vectorIS3_SaIS3_EEEENS_17__normal_iteratorIT_T0_E15difference_typeERKSC_SF_(ptr noundef nonnull align 8 dereferenceable(8) %6, ptr noundef nonnull align 8 dereferenceable(8) %11) #36
  call void @llvm.lifetime.end.p0(i64 8, ptr %11) #36
  store i64 %23, ptr %10, align 8, !tbaa !10
  call void @llvm.lifetime.start.p0(i64 8, ptr %13) #36
  %24 = call ptr @_ZNSt6vectorIN4toml2v314path_componentESaIS2_EE5beginEv(ptr noundef nonnull align 8 dereferenceable(24) %20) #36
  %25 = getelementptr inbounds nuw %"class.__gnu_cxx::__normal_iterator.32", ptr %13, i32 0, i32 0
  store ptr %24, ptr %25, align 8
  %26 = load i64, ptr %10, align 8, !tbaa !10
  %27 = call ptr @_ZNK9__gnu_cxx17__normal_iteratorIPN4toml2v314path_componentESt6vectorIS3_SaIS3_EEEplEl(ptr noundef nonnull align 8 dereferenceable(8) %13, i64 noundef %26) #36
  %28 = getelementptr inbounds nuw %"class.__gnu_cxx::__normal_iterator.32", ptr %12, i32 0, i32 0
  store ptr %27, ptr %28, align 8
  call void @llvm.memcpy.p0.p0.i64(ptr align 8 %14, ptr align 8 %7, i64 8, i1 false), !tbaa.struct !191
  call void @llvm.memcpy.p0.p0.i64(ptr align 8 %15, ptr align 8 %8, i64 8, i1 false), !tbaa.struct !191
  %29 = getelementptr inbounds nuw %"class.__gnu_cxx::__normal_iterator.32", ptr %12, i32 0, i32 0
  %30 = load ptr, ptr %29, align 8
  %31 = getelementptr inbounds nuw %"class.__gnu_cxx::__normal_iterator", ptr %14, i32 0, i32 0
  %32 = load ptr, ptr %31, align 8
  %33 = getelementptr inbounds nuw %"class.__gnu_cxx::__normal_iterator", ptr %15, i32 0, i32 0
  %34 = load ptr, ptr %33, align 8
  call void @_ZNSt6vectorIN4toml2v314path_componentESaIS2_EE18_M_insert_dispatchIN9__gnu_cxx17__normal_iteratorIPKS2_S4_EEEEvNS7_IPS2_S4_EET_SD_St12__false_type(ptr noundef nonnull align 8 dereferenceable(24) %20, ptr %30, ptr %32, ptr %34)
  call void @llvm.lifetime.end.p0(i64 8, ptr %13) #36
  call void @llvm.lifetime.start.p0(i64 8, ptr %16) #36
  %35 = call ptr @_ZNSt6vectorIN4toml2v314path_componentESaIS2_EE5beginEv(ptr noundef nonnull align 8 dereferenceable(24) %20) #36
  %36 = getelementptr inbounds nuw %"class.__gnu_cxx::__normal_iterator.32", ptr %16, i32 0, i32 0
  store ptr %35, ptr %36, align 8
  %37 = load i64, ptr %10, align 8, !tbaa !10
  %38 = call ptr @_ZNK9__gnu_cxx17__normal_iteratorIPN4toml2v314path_componentESt6vectorIS3_SaIS3_EEEplEl(ptr noundef nonnull align 8 dereferenceable(8) %16, i64 noundef %37) #36
  %39 = getelementptr inbounds nuw %"class.__gnu_cxx::__normal_iterator.32", ptr %5, i32 0, i32 0
  store ptr %38, ptr %39, align 8
  call void @llvm.lifetime.end.p0(i64 8, ptr %16) #36
  call void @llvm.lifetime.end.p0(i64 8, ptr %10) #36
  %40 = getelementptr inbounds nuw %"class.__gnu_cxx::__normal_iterator.32", ptr %5, i32 0, i32 0
  %41 = load ptr, ptr %40, align 8
  ret ptr %41
}

; Function Attrs: mustprogress nounwind uwtable
define linkonce_odr void @_ZN9__gnu_cxx17__normal_iteratorIPKN4toml2v314path_componentESt6vectorIS3_SaIS3_EEEC2IPS3_vEERKNS0_IT_S8_EE(ptr noundef nonnull align 8 dereferenceable(8) %0, ptr noundef nonnull align 8 dereferenceable(8) %1) unnamed_addr #2 comdat align 2 {
  %3 = alloca ptr, align 8
  %4 = alloca ptr, align 8
  store ptr %0, ptr %3, align 8, !tbaa !184
  store ptr %1, ptr %4, align 8, !tbaa !192
  %5 = load ptr, ptr %3, align 8
  %6 = getelementptr inbounds nuw %"class.__gnu_cxx::__normal_iterator", ptr %5, i32 0, i32 0
  %7 = load ptr, ptr %4, align 8, !tbaa !192
  %8 = call noundef nonnull align 8 dereferenceable(8) ptr @_ZNK9__gnu_cxx17__normal_iteratorIPN4toml2v314path_componentESt6vectorIS3_SaIS3_EEE4baseEv(ptr noundef nonnull align 8 dereferenceable(8) %7) #36
  %9 = load ptr, ptr %8, align 8, !tbaa !153
  store ptr %9, ptr %6, align 8, !tbaa !186
  ret void
}

; Function Attrs: mustprogress nounwind uwtable
define linkonce_odr ptr @_ZNSt6vectorIN4toml2v314path_componentESaIS2_EE5beginEv(ptr noundef nonnull align 8 dereferenceable(24) %0) #2 comdat align 2 {
  %2 = alloca %"class.__gnu_cxx::__normal_iterator.32", align 8
  %3 = alloca ptr, align 8
  store ptr %0, ptr %3, align 8, !tbaa !182
  %4 = load ptr, ptr %3, align 8
  %5 = getelementptr inbounds nuw %"struct.std::_Vector_base.25", ptr %4, i32 0, i32 0
  %6 = getelementptr inbounds nuw %"struct.std::_Vector_base<toml::v3::path_component, std::allocator<toml::v3::path_component>>::_Vector_impl_data", ptr %5, i32 0, i32 0
  call void @_ZN9__gnu_cxx17__normal_iteratorIPN4toml2v314path_componentESt6vectorIS3_SaIS3_EEEC2ERKS4_(ptr noundef nonnull align 8 dereferenceable(8) %2, ptr noundef nonnull align 8 dereferenceable(8) %6) #36
  %7 = getelementptr inbounds nuw %"class.__gnu_cxx::__normal_iterator.32", ptr %2, i32 0, i32 0
  %8 = load ptr, ptr %7, align 8
  ret ptr %8
}

; Function Attrs: mustprogress nounwind uwtable
define linkonce_odr void @_ZN4toml2v34pathC2Ev(ptr noundef nonnull align 8 dereferenceable(24) %0) unnamed_addr #2 comdat align 2 {
  %2 = alloca ptr, align 8
  store ptr %0, ptr %2, align 8, !tbaa !151
  %3 = load ptr, ptr %2, align 8
  %4 = getelementptr inbounds nuw %"class.toml::v3::path", ptr %3, i32 0, i32 0
  call void @_ZNSt6vectorIN4toml2v314path_componentESaIS2_EEC2Ev(ptr noundef nonnull align 8 dereferenceable(24) %4) #36
  ret void
}

; Function Attrs: inlinehint mustprogress nounwind uwtable
define linkonce_odr noundef zeroext i1 @_ZN9__gnu_cxxgeIPKN4toml2v314path_componentESt6vectorIS3_SaIS3_EEEEbRKNS_17__normal_iteratorIT_T0_EESE_(ptr noundef nonnull align 8 dereferenceable(8) %0, ptr noundef nonnull align 8 dereferenceable(8) %1) #3 comdat {
  %3 = alloca ptr, align 8
  %4 = alloca ptr, align 8
  store ptr %0, ptr %3, align 8, !tbaa !184
  store ptr %1, ptr %4, align 8, !tbaa !184
  %5 = load ptr, ptr %3, align 8, !tbaa !184
  %6 = call noundef nonnull align 8 dereferenceable(8) ptr @_ZNK9__gnu_cxx17__normal_iteratorIPKN4toml2v314path_componentESt6vectorIS3_SaIS3_EEE4baseEv(ptr noundef nonnull align 8 dereferenceable(8) %5) #36
  %7 = load ptr, ptr %6, align 8, !tbaa !153
  %8 = load ptr, ptr %4, align 8, !tbaa !184
  %9 = call noundef nonnull align 8 dereferenceable(8) ptr @_ZNK9__gnu_cxx17__normal_iteratorIPKN4toml2v314path_componentESt6vectorIS3_SaIS3_EEE4baseEv(ptr noundef nonnull align 8 dereferenceable(8) %8) #36
  %10 = load ptr, ptr %9, align 8, !tbaa !153
  %11 = icmp uge ptr %7, %10
  ret i1 %11
}

; Function Attrs: mustprogress uwtable
define void @_ZNK4toml2v34path7subpathEN9__gnu_cxx17__normal_iteratorIPKNS0_14path_componentESt6vectorIS4_SaIS4_EEEESA_(ptr dead_on_unwind noalias writable sret(%"class.toml::v3::path") align 8 %0, ptr noundef nonnull align 8 dereferenceable(24) %1, ptr %2, ptr %3) #0 align 2 personality ptr @__gxx_personality_v0 {
  %5 = alloca ptr, align 8
  %6 = alloca %"class.__gnu_cxx::__normal_iterator", align 8
  %7 = alloca %"class.__gnu_cxx::__normal_iterator", align 8
  %8 = alloca ptr, align 8
  %9 = alloca i1, align 1
  %10 = alloca %"class.__gnu_cxx::__normal_iterator", align 8
  %11 = alloca %"class.__gnu_cxx::__normal_iterator.32", align 8
  %12 = alloca %"class.__gnu_cxx::__normal_iterator", align 8
  %13 = alloca %"class.__gnu_cxx::__normal_iterator", align 8
  %14 = alloca ptr, align 8
  %15 = alloca i32, align 4
  %16 = alloca %"class.__gnu_cxx::__normal_iterator.32", align 8
  store ptr %0, ptr %5, align 8
  %17 = getelementptr inbounds nuw %"class.__gnu_cxx::__normal_iterator", ptr %6, i32 0, i32 0
  store ptr %2, ptr %17, align 8
  %18 = getelementptr inbounds nuw %"class.__gnu_cxx::__normal_iterator", ptr %7, i32 0, i32 0
  store ptr %3, ptr %18, align 8
  store ptr %1, ptr %8, align 8, !tbaa !151
  %19 = call noundef zeroext i1 @_ZN9__gnu_cxxgeIPKN4toml2v314path_componentESt6vectorIS3_SaIS3_EEEEbRKNS_17__normal_iteratorIT_T0_EESE_(ptr noundef nonnull align 8 dereferenceable(8) %6, ptr noundef nonnull align 8 dereferenceable(8) %7) #36
  br i1 %19, label %20, label %21

20:                                               ; preds = %4
  call void @llvm.memset.p0.i64(ptr align 8 %0, i8 0, i64 24, i1 false)
  call void @_ZN4toml2v34pathC2Ev(ptr noundef nonnull align 8 dereferenceable(24) %0) #36
  br label %42

21:                                               ; preds = %4
  store i1 false, ptr %9, align 1
  call void @_ZN4toml2v34pathC2Ev(ptr noundef nonnull align 8 dereferenceable(24) %0) #36
  %22 = getelementptr inbounds nuw %"class.toml::v3::path", ptr %0, i32 0, i32 0
  call void @llvm.lifetime.start.p0(i64 8, ptr %11) #36
  %23 = getelementptr inbounds nuw %"class.toml::v3::path", ptr %0, i32 0, i32 0
  %24 = call ptr @_ZNSt6vectorIN4toml2v314path_componentESaIS2_EE5beginEv(ptr noundef nonnull align 8 dereferenceable(24) %23) #36
  %25 = getelementptr inbounds nuw %"class.__gnu_cxx::__normal_iterator.32", ptr %11, i32 0, i32 0
  store ptr %24, ptr %25, align 8
  call void @_ZN9__gnu_cxx17__normal_iteratorIPKN4toml2v314path_componentESt6vectorIS3_SaIS3_EEEC2IPS3_vEERKNS0_IT_S8_EE(ptr noundef nonnull align 8 dereferenceable(8) %10, ptr noundef nonnull align 8 dereferenceable(8) %11) #36
  call void @llvm.memcpy.p0.p0.i64(ptr align 8 %12, ptr align 8 %6, i64 8, i1 false), !tbaa.struct !191
  call void @llvm.memcpy.p0.p0.i64(ptr align 8 %13, ptr align 8 %7, i64 8, i1 false), !tbaa.struct !191
  %26 = getelementptr inbounds nuw %"class.__gnu_cxx::__normal_iterator", ptr %10, i32 0, i32 0
  %27 = load ptr, ptr %26, align 8
  %28 = getelementptr inbounds nuw %"class.__gnu_cxx::__normal_iterator", ptr %12, i32 0, i32 0
  %29 = load ptr, ptr %28, align 8
  %30 = getelementptr inbounds nuw %"class.__gnu_cxx::__normal_iterator", ptr %13, i32 0, i32 0
  %31 = load ptr, ptr %30, align 8
  %32 = invoke ptr @_ZNSt6vectorIN4toml2v314path_componentESaIS2_EE6insertIN9__gnu_cxx17__normal_iteratorIPKS2_S4_EEvEENS7_IPS2_S4_EESA_T_SD_(ptr noundef nonnull align 8 dereferenceable(24) %22, ptr %27, ptr %29, ptr %31)
          to label %33 unwind label %36

33:                                               ; preds = %21
  %34 = getelementptr inbounds nuw %"class.__gnu_cxx::__normal_iterator.32", ptr %16, i32 0, i32 0
  store ptr %32, ptr %34, align 8
  call void @llvm.lifetime.end.p0(i64 8, ptr %11) #36
  store i1 true, ptr %9, align 1
  %35 = load i1, ptr %9, align 1
  br i1 %35, label %41, label %40

36:                                               ; preds = %21
  %37 = landingpad { ptr, i32 }
          cleanup
  %38 = extractvalue { ptr, i32 } %37, 0
  store ptr %38, ptr %14, align 8
  %39 = extractvalue { ptr, i32 } %37, 1
  store i32 %39, ptr %15, align 4
  call void @llvm.lifetime.end.p0(i64 8, ptr %11) #36
  call void @_ZN4toml2v34pathD2Ev(ptr noundef nonnull align 8 dereferenceable(24) %0) #36
  br label %43

40:                                               ; preds = %33
  call void @_ZN4toml2v34pathD2Ev(ptr noundef nonnull align 8 dereferenceable(24) %0) #36
  br label %41

41:                                               ; preds = %40, %33
  br label %42

42:                                               ; preds = %41, %20
  ret void

43:                                               ; preds = %36
  %44 = load ptr, ptr %14, align 8
  %45 = load i32, ptr %15, align 4
  %46 = insertvalue { ptr, i32 } poison, ptr %44, 0
  %47 = insertvalue { ptr, i32 } %46, i32 %45, 1
  resume { ptr, i32 } %47
}