; Function Attrs: mustprogress uwtable
define void @_ZNK4toml2v34path7subpathEN9__gnu_cxx17__normal_iteratorIPKNS0_14path_componentESt6vectorIS4_SaIS4_EEEESA_(ptr dead_on_unwind noalias writable sret(%"class.toml::v3::path") align 8 initializes((0, 24)) %0, ptr noundef nonnull readnone align 8 captures(none) dereferenceable(24) %1, ptr %2, ptr %3) local_unnamed_addr #0 align 2 personality ptr @__gxx_personality_v0 {
  %.not = icmp ult ptr %2, %3
  br i1 %.not, label %6, label %5

5:                                                ; preds = %4
  tail call void @llvm.memset.p0.i64(ptr noundef nonnull align 8 dereferenceable(24) %0, i8 0, i64 24, i1 false)
  br label %9

6:                                                ; preds = %4
  tail call void @llvm.memset.p0.i64(ptr noundef nonnull align 8 dereferenceable(24) %0, i8 0, i64 24, i1 false)
  invoke void @_ZNSt6vectorIN4toml2v314path_componentESaIS2_EE15_M_range_insertIN9__gnu_cxx17__normal_iteratorIPKS2_S4_EEEEvNS7_IPS2_S4_EET_SD_St20forward_iterator_tag(ptr noundef nonnull align 8 dereferenceable(24) %0, ptr null, ptr %2, ptr nonnull %3)
          to label %9 unwind label %7

7:                                                ; preds = %6
  %8 = landingpad { ptr, i32 }
          cleanup
  tail call void @_ZN4toml2v34pathD2Ev(ptr noundef nonnull align 8 dereferenceable(24) %0) #50
  resume { ptr, i32 } %8

9:                                                ; preds = %6, %5
  ret void
}